target datalayout = "e-m:e-p270:32:32-p271:32:32-p272:64:64-i64:64-i128:128-f80:128-n8:16:32:64-S128"
target triple = "x86_64-pc-linux-gnu"

; Function Attrs: nounwind uwtable
define dso_local ptr @bufferevent_openssl_socket_new(ptr noundef %0, i32 noundef %1, ptr noundef %2, i32 noundef %3, i32 noundef %4) #0 {
  %6 = alloca ptr, align 8
  %7 = alloca ptr, align 8
  %8 = alloca i32, align 4
  %9 = alloca ptr, align 8
  %10 = alloca i32, align 4
  %11 = alloca i32, align 4
  %12 = alloca ptr, align 8
  %13 = alloca i64, align 8
  %14 = alloca i32, align 4
  store ptr %0, ptr %7, align 8
  store i32 %1, ptr %8, align 4
  store ptr %2, ptr %9, align 8
  store i32 %3, ptr %10, align 4
  store i32 %4, ptr %11, align 4
  call void @llvm.lifetime.start.p0(i64 8, ptr %12) #5
  %15 = load ptr, ptr %9, align 8
  %16 = call ptr @SSL_get_wbio(ptr noundef %15)
  store ptr %16, ptr %12, align 8
  call void @llvm.lifetime.start.p0(i64 8, ptr %13) #5
  store i64 -1, ptr %13, align 8
  %17 = load ptr, ptr %12, align 8
  %18 = icmp ne ptr %17, null
  br i1 %18, label %19, label %22

19:                                               ; preds = %5
  %20 = load ptr, ptr %12, align 8
  %21 = call i64 @BIO_ctrl(ptr noundef %20, i32 noundef 105, i64 noundef 0, ptr noundef null)
  store i64 %21, ptr %13, align 8
  br label %22

22:                                               ; preds = %19, %5
  %23 = load i64, ptr %13, align 8
  %24 = icmp sge i64 %23, 0
  br i1 %24, label %25, label %42

25:                                               ; preds = %22
  %26 = load i32, ptr %8, align 4
  %27 = icmp slt i32 %26, 0
  br i1 %27, label %28, label %31

28:                                               ; preds = %25
  %29 = load i64, ptr %13, align 8
  %30 = trunc i64 %29 to i32
  store i32 %30, ptr %8, align 4
  br label %39

31:                                               ; preds = %25
  %32 = load i64, ptr %13, align 8
  %33 = load i32, ptr %8, align 4
  %34 = sext i32 %33 to i64
  %35 = icmp eq i64 %32, %34
  br i1 %35, label %36, label %37

36:                                               ; preds = %31
  br label %38

37:                                               ; preds = %31
  br label %60

38:                                               ; preds = %36
  br label %39

39:                                               ; preds = %38, %28
  %40 = load ptr, ptr %12, align 8
  %41 = call i64 @BIO_ctrl(ptr noundef %40, i32 noundef 9, i64 noundef 0, ptr noundef null)
  br label %53

42:                                               ; preds = %22
  %43 = load i32, ptr %8, align 4
  %44 = icmp sge i32 %43, 0
  br i1 %44, label %45, label %51

45:                                               ; preds = %42
  %46 = load i32, ptr %8, align 4
  %47 = call ptr @BIO_new_socket(i32 noundef %46, i32 noundef 0)
  store ptr %47, ptr %12, align 8
  %48 = load ptr, ptr %9, align 8
  %49 = load ptr, ptr %12, align 8
  %50 = load ptr, ptr %12, align 8
  call void @SSL_set_bio(ptr noundef %48, ptr noundef %49, ptr noundef %50)
  br label %52

51:                                               ; preds = %42
  br label %52

52:                                               ; preds = %51, %45
  br label %53

53:                                               ; preds = %52, %39
  %54 = load ptr, ptr %7, align 8
  %55 = load i32, ptr %8, align 4
  %56 = load ptr, ptr %9, align 8
  %57 = load i32, ptr %10, align 4
  %58 = load i32, ptr %11, align 4
  %59 = call ptr @bufferevent_ssl_new_impl(ptr noundef %54, ptr noundef null, i32 noundef %55, ptr noundef %56, i32 noundef %57, i32 noundef %58, ptr noundef @le_openssl_ops)
  store ptr %59, ptr %6, align 8
  store i32 1, ptr %14, align 4
  br label %67

60:                                               ; preds = %37
  %61 = load i32, ptr %11, align 4
  %62 = and i32 %61, 1
  %63 = icmp ne i32 %62, 0
  br i1 %63, label %64, label %66

64:                                               ; preds = %60
  %65 = load ptr, ptr %9, align 8
  call void @SSL_free(ptr noundef %65)
  br label %66

66:                                               ; preds = %64, %60
  store ptr null, ptr %6, align 8
  store i32 1, ptr %14, align 4
  br label %67

67:                                               ; preds = %66, %53
  call void @llvm.lifetime.end.p0(i64 8, ptr %13) #5
  call void @llvm.lifetime.end.p0(i64 8, ptr %12) #5
  %68 = load ptr, ptr %6, align 8
  ret ptr %68
}