; Function Attrs: nounwind uwtable
define dso_local ptr @bufferevent_openssl_socket_new(ptr noundef %0, i32 noundef %1, ptr noundef %2, i32 noundef %3, i32 noundef %4) local_unnamed_addr #0 {
  %6 = tail call ptr @SSL_get_wbio(ptr noundef %2) #5
  %.not = icmp eq ptr %6, null
  br i1 %.not, label %.thread, label %7

7:                                                ; preds = %5
  %8 = tail call i64 @BIO_ctrl(ptr noundef nonnull %6, i32 noundef 105, i64 noundef 0, ptr noundef null) #5
  %9 = icmp sgt i64 %8, -1
  br i1 %9, label %10, label %.thread

10:                                               ; preds = %7
  %11 = icmp slt i32 %1, 0
  br i1 %11, label %12, label %14

12:                                               ; preds = %10
  %13 = trunc i64 %8 to i32
  br label %17

14:                                               ; preds = %10
  %15 = zext nneg i32 %1 to i64
  %16 = icmp eq i64 %8, %15
  br i1 %16, label %17, label %24

17:                                               ; preds = %14, %12
  %.022 = phi i32 [ %13, %12 ], [ %1, %14 ]
  %18 = tail call i64 @BIO_ctrl(ptr noundef nonnull %6, i32 noundef 9, i64 noundef 0, ptr noundef null) #5
  br label %22

.thread:                                          ; preds = %5, %7
  %19 = icmp sgt i32 %1, -1
  br i1 %19, label %20, label %22

20:                                               ; preds = %.thread
  %21 = tail call ptr @BIO_new_socket(i32 noundef %1, i32 noundef 0) #5
  tail call void @SSL_set_bio(ptr noundef %2, ptr noundef %21, ptr noundef %21) #5
  br label %22

22:                                               ; preds = %20, %.thread, %17
  %.1 = phi i32 [ %.022, %17 ], [ %1, %20 ], [ %1, %.thread ]
  %23 = tail call ptr @bufferevent_ssl_new_impl(ptr noundef %0, ptr noundef null, i32 noundef %.1, ptr noundef %2, i32 noundef %3, i32 noundef %4, ptr noundef nonnull @le_openssl_ops) #5
  br label %27

24:                                               ; preds = %14
  %25 = and i32 %4, 1
  %.not26 = icmp eq i32 %25, 0
  br i1 %.not26, label %27, label %26

26:                                               ; preds = %24
  tail call void @SSL_free(ptr noundef %2) #5
  br label %27

27:                                               ; preds = %24, %26, %22
  %.021 = phi ptr [ %23, %22 ], [ null, %26 ], [ null, %24 ]
  ret ptr %.021
}